target datalayout = "e-m:e-p270:32:32-p271:32:32-p272:64:64-i64:64-i128:128-f80:128-n8:16:32:64-S128"
target triple = "x86_64-pc-linux-gnu"

%struct.AVFormatContext = type { ptr, ptr, ptr, ptr, ptr, i32, i32, ptr, i32, ptr, i32, ptr, ptr, i64, i64, i64, i32, i32, i32, i64, i64, ptr, i32, i32, ptr, i32, i32, i32, i32, ptr, i64, i32, i32, %struct.AVIOInterruptCB, i32, i32, i32, i32, i64, i32, i32, i32, i32, i32, i32, i32, i32, i32, i32, i32, i32, i64, i32, i32, i32, i32, i32, ptr, ptr, ptr, ptr, i32, ptr, ptr, ptr, ptr, i32, ptr, ptr, i64, ptr, ptr, ptr, i64 }
%struct.AVIOInterruptCB = type { ptr, ptr }
%struct.ogg = type { ptr, i32, i32, i32, i64, ptr }
%struct.ogg_stream = type { ptr, i32, i32, i32, i32, i32, i32, i32, i64, i64, i64, i64, i64, i64, i32, ptr, i32, i32, i32, [255 x i8], i32, i32, i32, i32, i32, i32, i32, i32, ptr, i64, ptr }
%struct.AVStream = type { ptr, i32, i32, ptr, ptr, %struct.AVRational, i64, i64, i64, i32, i32, %struct.AVRational, ptr, %struct.AVRational, %struct.AVPacket, i32, %struct.AVRational, i32 }
%struct.AVPacket = type { ptr, i64, i64, ptr, i32, i32, i32, ptr, i32, i64, i64, ptr, ptr, %struct.AVRational }
%struct.AVRational = type { i32, i32 }
%struct.AVCodecParameters = type { i32, i32, i32, ptr, i32, ptr, i32, i32, i64, i32, i32, i32, i32, i32, i32, %struct.AVRational, %struct.AVRational, i32, i32, i32, i32, i32, i32, i32, %struct.AVChannelLayout, i32, i32, i32, i32, i32, i32 }
%struct.AVChannelLayout = type { i32, i32, %union.anon, ptr }
%union.anon = type { i64 }

; Function Attrs: alwaysinline nounwind willreturn memory(none) uwtable
define internal i32 @av_bswap32(i32 noundef %0) #4 {
  %2 = alloca i32, align 4
  store i32 %0, ptr %2, align 4, !tbaa !9
  %3 = load i32, ptr %2, align 4, !tbaa !9
  %4 = shl i32 %3, 8
  %5 = and i32 %4, 65280
  %6 = load i32, ptr %2, align 4, !tbaa !9
  %7 = lshr i32 %6, 8
  %8 = and i32 %7, 255
  %9 = or i32 %5, %8
  %10 = shl i32 %9, 16
  %11 = load i32, ptr %2, align 4, !tbaa !9
  %12 = lshr i32 %11, 16
  %13 = shl i32 %12, 8
  %14 = and i32 %13, 65280
  %15 = load i32, ptr %2, align 4, !tbaa !9
  %16 = lshr i32 %15, 16
  %17 = lshr i32 %16, 8
  %18 = and i32 %17, 255
  %19 = or i32 %14, %18
  %20 = or i32 %10, %19
  ret i32 %20
}

; Function Attrs: nounwind uwtable
define internal i32 @old_dirac_header(ptr noundef %0, i32 noundef %1) #0 {
  %3 = alloca i32, align 4
  %4 = alloca ptr, align 8
  %5 = alloca i32, align 4
  %6 = alloca ptr, align 8
  %7 = alloca ptr, align 8
  %8 = alloca ptr, align 8
  %9 = alloca ptr, align 8
  %10 = alloca i32, align 4
  store ptr %0, ptr %4, align 8, !tbaa !4
  store i32 %1, ptr %5, align 4, !tbaa !9
  call void @llvm.lifetime.start.p0(i64 8, ptr %6) #5
  %11 = load ptr, ptr %4, align 8, !tbaa !4
  %12 = getelementptr inbounds nuw %struct.AVFormatContext, ptr %11, i32 0, i32 3
  %13 = load ptr, ptr %12, align 8, !tbaa !11
  store ptr %13, ptr %6, align 8, !tbaa !27
  call void @llvm.lifetime.start.p0(i64 8, ptr %7) #5
  %14 = load ptr, ptr %6, align 8, !tbaa !27
  %15 = getelementptr inbounds nuw %struct.ogg, ptr %14, i32 0, i32 0
  %16 = load ptr, ptr %15, align 8, !tbaa !29
  %17 = load i32, ptr %5, align 4, !tbaa !9
  %18 = sext i32 %17 to i64
  %19 = getelementptr inbounds %struct.ogg_stream, ptr %16, i64 %18
  store ptr %19, ptr %7, align 8, !tbaa !33
  call void @llvm.lifetime.start.p0(i64 8, ptr %8) #5
  %20 = load ptr, ptr %4, align 8, !tbaa !4
  %21 = getelementptr inbounds nuw %struct.AVFormatContext, ptr %20, i32 0, i32 7
  %22 = load ptr, ptr %21, align 8, !tbaa !34
  %23 = load i32, ptr %5, align 4, !tbaa !9
  %24 = sext i32 %23 to i64
  %25 = getelementptr inbounds ptr, ptr %22, i64 %24
  %26 = load ptr, ptr %25, align 8, !tbaa !35
  store ptr %26, ptr %8, align 8, !tbaa !35
  call void @llvm.lifetime.start.p0(i64 8, ptr %9) #5
  %27 = load ptr, ptr %7, align 8, !tbaa !33
  %28 = getelementptr inbounds nuw %struct.ogg_stream, ptr %27, i32 0, i32 0
  %29 = load ptr, ptr %28, align 8, !tbaa !47
  %30 = load ptr, ptr %7, align 8, !tbaa !33
  %31 = getelementptr inbounds nuw %struct.ogg_stream, ptr %30, i32 0, i32 3
  %32 = load i32, ptr %31, align 8, !tbaa !50
  %33 = zext i32 %32 to i64
  %34 = getelementptr inbounds nuw i8, ptr %29, i64 %33
  store ptr %34, ptr %9, align 8, !tbaa !83
  %35 = load ptr, ptr %9, align 8, !tbaa !83
  %36 = getelementptr inbounds i8, ptr %35, i64 0
  %37 = load i8, ptr %36, align 1, !tbaa !84
  %38 = zext i8 %37 to i32
  %39 = icmp ne i32 %38, 75
  br i1 %39, label %40, label %41

40:                                               ; preds = %2
  store i32 0, ptr %3, align 4
  store i32 1, ptr %10, align 4
  br label %59

41:                                               ; preds = %2
  %42 = load ptr, ptr %8, align 8, !tbaa !35
  %43 = getelementptr inbounds nuw %struct.AVStream, ptr %42, i32 0, i32 3
  %44 = load ptr, ptr %43, align 8, !tbaa !37
  %45 = getelementptr inbounds nuw %struct.AVCodecParameters, ptr %44, i32 0, i32 0
  store i32 0, ptr %45, align 8, !tbaa !52
  %46 = load ptr, ptr %8, align 8, !tbaa !35
  %47 = getelementptr inbounds nuw %struct.AVStream, ptr %46, i32 0, i32 3
  %48 = load ptr, ptr %47, align 8, !tbaa !37
  %49 = getelementptr inbounds nuw %struct.AVCodecParameters, ptr %48, i32 0, i32 1
  store i32 116, ptr %49, align 4, !tbaa !44
  %50 = load ptr, ptr %8, align 8, !tbaa !35
  %51 = load ptr, ptr %9, align 8, !tbaa !83
  %52 = getelementptr inbounds i8, ptr %51, i64 12
  %53 = load i32, ptr %52, align 1, !tbaa !84
  %54 = call i32 @av_bswap32(i32 noundef %53) #6
  %55 = load ptr, ptr %9, align 8, !tbaa !83
  %56 = getelementptr inbounds i8, ptr %55, i64 8
  %57 = load i32, ptr %56, align 1, !tbaa !84
  %58 = call i32 @av_bswap32(i32 noundef %57) #6
  call void @avpriv_set_pts_info(ptr noundef %50, i32 noundef 64, i32 noundef %54, i32 noundef %58)
  store i32 1, ptr %3, align 4
  store i32 1, ptr %10, align 4
  br label %59

59:                                               ; preds = %41, %40
  call void @llvm.lifetime.end.p0(i64 8, ptr %9) #5
  call void @llvm.lifetime.end.p0(i64 8, ptr %8) #5
  call void @llvm.lifetime.end.p0(i64 8, ptr %7) #5
  call void @llvm.lifetime.end.p0(i64 8, ptr %6) #5
  %60 = load i32, ptr %3, align 4
  ret i32 %60
}