; Function Attrs: nounwind uwtable
define internal range(i32 0, 2) i32 @old_dirac_header(ptr noundef readonly captures(none) %0, i32 noundef %1) #0 {
  %3 = getelementptr inbounds nuw i8, ptr %0, i64 24
  %4 = load ptr, ptr %3, align 8, !tbaa !4
  %5 = load ptr, ptr %4, align 8, !tbaa !24
  %6 = sext i32 %1 to i64
  %7 = getelementptr inbounds %struct.ogg_stream, ptr %5, i64 %6
  %8 = load ptr, ptr %7, align 8, !tbaa !41
  %9 = getelementptr inbounds nuw i8, ptr %7, i64 16
  %10 = load i32, ptr %9, align 8, !tbaa !44
  %11 = zext i32 %10 to i64
  %12 = getelementptr inbounds nuw i8, ptr %8, i64 %11
  %13 = load i8, ptr %12, align 1, !tbaa !74
  %.not = icmp eq i8 %13, 75
  br i1 %.not, label %14, label %28

14:                                               ; preds = %2
  %15 = getelementptr inbounds nuw i8, ptr %0, i64 48
  %16 = load ptr, ptr %15, align 8, !tbaa !28
  %17 = getelementptr inbounds ptr, ptr %16, i64 %6
  %18 = load ptr, ptr %17, align 8, !tbaa !29
  %19 = getelementptr inbounds nuw i8, ptr %18, i64 16
  %20 = load ptr, ptr %19, align 8, !tbaa !31
  store i32 0, ptr %20, align 8, !tbaa !46
  %21 = getelementptr inbounds nuw i8, ptr %20, i64 4
  store i32 116, ptr %21, align 4, !tbaa !38
  %22 = getelementptr inbounds nuw i8, ptr %12, i64 12
  %23 = load i32, ptr %22, align 1, !tbaa !74
  %24 = tail call i32 @llvm.bswap.i32(i32 %23)
  %25 = getelementptr inbounds nuw i8, ptr %12, i64 8
  %26 = load i32, ptr %25, align 1, !tbaa !74
  %27 = tail call i32 @llvm.bswap.i32(i32 %26)
  tail call void @avpriv_set_pts_info(ptr noundef %18, i32 noundef 64, i32 noundef %24, i32 noundef %27) #5
  br label %28

28:                                               ; preds = %2, %14
  %.0 = phi i32 [ 1, %14 ], [ 0, %2 ]
  ret i32 %.0
}